; Function Attrs: nofree norecurse nosync nounwind memory(argmem: readwrite) uwtable
define internal void @DC16NoLeft_SSE2(ptr noundef captures(none) %0) #2 {
  %2 = getelementptr inbounds i8, ptr %0, i64 -32
  %3 = load <16 x i8>, ptr %2, align 1, !tbaa !7
  %4 = tail call <2 x i64> @llvm.x86.sse2.psad.bw(<16 x i8> %3, <16 x i8> zeroinitializer)
  %5 = bitcast <2 x i64> %4 to <4 x i32>
  %6 = shufflevector <4 x i32> %5, <4 x i32> poison, <4 x i32> <i32 2, i32 poison, i32 poison, i32 poison>
  %7 = bitcast <2 x i64> %4 to <8 x i16>
  %8 = bitcast <4 x i32> %6 to <8 x i16>
  %9 = add <8 x i16> %8, %7
  %10 = bitcast <8 x i16> %9 to <4 x i32>
  %11 = extractelement <4 x i32> %10, i64 0
  %12 = add nsw i32 %11, 8
  %13 = lshr i32 %12, 4
  %14 = trunc i32 %13 to i8
  %15 = insertelement <16 x i8> poison, i8 %14, i64 0
  %16 = shufflevector <16 x i8> %15, <16 x i8> poison, <16 x i32> zeroinitializer
  br label %17

17:                                               ; preds = %17, %1
  %indvars.iv.i = phi i64 [ 0, %1 ], [ %indvars.iv.next.i, %17 ]
  %18 = shl nuw nsw i64 %indvars.iv.i, 5
  %19 = getelementptr inbounds nuw i8, ptr %0, i64 %18
  store <16 x i8> %16, ptr %19, align 1, !tbaa !7
  %indvars.iv.next.i = add nuw nsw i64 %indvars.iv.i, 1
  %exitcond.not.i = icmp eq i64 %indvars.iv.next.i, 16
  br i1 %exitcond.not.i, label %Put16_SSE2.exit, label %17, !llvm.loop !17

Put16_SSE2.exit:                                  ; preds = %17
  ret void
}